; Function Attrs: mustprogress uwtable
define void @_ZN12ByteViewText12markAppendixEii(ptr noundef nonnull align 8 dereferenceable(328) %0, i32 noundef %1, i32 noundef %2) local_unnamed_addr #0 align 2 {
  %4 = getelementptr inbounds i8, ptr %0, i64 184
  store i32 %1, ptr %4, align 8
  %5 = getelementptr inbounds i8, ptr %0, i64 188
  store i32 %2, ptr %5, align 4
  %6 = tail call noundef ptr @_ZNK19QAbstractScrollArea8viewportEv(ptr noundef nonnull align 8 dereferenceable(40) %0)
  tail call void @_ZN7QWidget6updateEv(ptr noundef nonnull align 8 dereferenceable(40) %6)
  ret void
}